target datalayout = "e-m:e-p270:32:32-p271:32:32-p272:64:64-i64:64-i128:128-f80:128-n8:16:32:64-S128"
target triple = "x86_64-pc-linux-gnu"

%struct.ifaddrs = type { ptr, ptr, i32, ptr, ptr, %union.anon.7, ptr }
%union.anon.7 = type { ptr }
%struct.uv_interface_address_s = type { ptr, [6 x i8], i32, %union.anon.8, %union.anon.10 }
%union.anon.8 = type { %struct.sockaddr_in6 }
%struct.sockaddr_in6 = type { i16, i16, i32, %struct.in6_addr, i32 }
%struct.in6_addr = type { %union.anon.9 }
%union.anon.9 = type { [4 x i32] }
%union.anon.10 = type { %struct.sockaddr_in6 }
%struct.sockaddr = type { i16, [14 x i8] }
%struct.sockaddr_ll = type { i16, i16, i32, i16, i8, i8, [8 x i8] }

; Function Attrs: nounwind uwtable
define internal i32 @uv__ifaddr_exclude(ptr noundef %0, i32 noundef %1) #0 {
  %3 = alloca i32, align 4
  %4 = alloca ptr, align 8
  %5 = alloca i32, align 4
  store ptr %0, ptr %4, align 8
  store i32 %1, ptr %5, align 4
  %6 = load ptr, ptr %4, align 8
  %7 = getelementptr inbounds nuw %struct.ifaddrs, ptr %6, i32 0, i32 2
  %8 = load i32, ptr %7, align 8
  %9 = and i32 %8, 1
  %10 = icmp ne i32 %9, 0
  br i1 %10, label %11, label %17

11:                                               ; preds = %2
  %12 = load ptr, ptr %4, align 8
  %13 = getelementptr inbounds nuw %struct.ifaddrs, ptr %12, i32 0, i32 2
  %14 = load i32, ptr %13, align 8
  %15 = and i32 %14, 64
  %16 = icmp ne i32 %15, 0
  br i1 %16, label %18, label %17

17:                                               ; preds = %11, %2
  store i32 1, ptr %3, align 4
  br label %39

18:                                               ; preds = %11
  %19 = load ptr, ptr %4, align 8
  %20 = getelementptr inbounds nuw %struct.ifaddrs, ptr %19, i32 0, i32 3
  %21 = load ptr, ptr %20, align 8
  %22 = icmp eq ptr %21, null
  br i1 %22, label %23, label %24

23:                                               ; preds = %18
  store i32 1, ptr %3, align 4
  br label %39

24:                                               ; preds = %18
  %25 = load ptr, ptr %4, align 8
  %26 = getelementptr inbounds nuw %struct.ifaddrs, ptr %25, i32 0, i32 3
  %27 = load ptr, ptr %26, align 8
  %28 = getelementptr inbounds nuw %struct.sockaddr, ptr %27, i32 0, i32 0
  %29 = load i16, ptr %28, align 2
  %30 = zext i16 %29 to i32
  %31 = icmp eq i32 %30, 17
  br i1 %31, label %32, label %34

32:                                               ; preds = %24
  %33 = load i32, ptr %5, align 4
  store i32 %33, ptr %3, align 4
  br label %39

34:                                               ; preds = %24
  %35 = load i32, ptr %5, align 4
  %36 = icmp ne i32 %35, 0
  %37 = xor i1 %36, true
  %38 = zext i1 %37 to i32
  store i32 %38, ptr %3, align 4
  br label %39

39:                                               ; preds = %34, %32, %23, %17
  %40 = load i32, ptr %3, align 4
  ret i32 %40
}

; Function Attrs: nounwind uwtable
define dso_local i32 @uv_interface_addresses(ptr noundef %0, ptr noundef %1) #0 {
  %3 = alloca i32, align 4
  %4 = alloca ptr, align 8
  %5 = alloca ptr, align 8
  %6 = alloca ptr, align 8
  %7 = alloca ptr, align 8
  %8 = alloca ptr, align 8
  %9 = alloca i32, align 4
  %10 = alloca ptr, align 8
  %11 = alloca i32, align 4
  %12 = alloca i64, align 8
  store ptr %0, ptr %4, align 8
  store ptr %1, ptr %5, align 8
  call void @llvm.lifetime.start.p0(i64 8, ptr %6) #12
  call void @llvm.lifetime.start.p0(i64 8, ptr %7) #12
  call void @llvm.lifetime.start.p0(i64 8, ptr %8) #12
  call void @llvm.lifetime.start.p0(i64 4, ptr %9) #12
  call void @llvm.lifetime.start.p0(i64 8, ptr %10) #12
  %13 = load ptr, ptr %5, align 8
  store i32 0, ptr %13, align 4
  %14 = load ptr, ptr %4, align 8
  store ptr null, ptr %14, align 8
  %15 = call i32 @getifaddrs(ptr noundef %6) #12
  %16 = icmp ne i32 %15, 0
  br i1 %16, label %17, label %21

17:                                               ; preds = %2
  %18 = call ptr @__errno_location() #14
  %19 = load i32, ptr %18, align 4
  %20 = sub nsw i32 0, %19
  store i32 %20, ptr %3, align 4
  store i32 1, ptr %11, align 4
  br label %204

21:                                               ; preds = %2
  %22 = load ptr, ptr %6, align 8
  store ptr %22, ptr %7, align 8
  br label %23

23:                                               ; preds = %35, %21
  %24 = load ptr, ptr %7, align 8
  %25 = icmp ne ptr %24, null
  br i1 %25, label %26, label %39

26:                                               ; preds = %23
  %27 = load ptr, ptr %7, align 8
  %28 = call i32 @uv__ifaddr_exclude(ptr noundef %27, i32 noundef 1)
  %29 = icmp ne i32 %28, 0
  br i1 %29, label %30, label %31

30:                                               ; preds = %26
  br label %35

31:                                               ; preds = %26
  %32 = load ptr, ptr %5, align 8
  %33 = load i32, ptr %32, align 4
  %34 = add nsw i32 %33, 1
  store i32 %34, ptr %32, align 4
  br label %35

35:                                               ; preds = %31, %30
  %36 = load ptr, ptr %7, align 8
  %37 = getelementptr inbounds nuw %struct.ifaddrs, ptr %36, i32 0, i32 0
  %38 = load ptr, ptr %37, align 8
  store ptr %38, ptr %7, align 8
  br label %23

39:                                               ; preds = %23
  %40 = load ptr, ptr %5, align 8
  %41 = load i32, ptr %40, align 4
  %42 = icmp eq i32 %41, 0
  br i1 %42, label %43, label %45

43:                                               ; preds = %39
  %44 = load ptr, ptr %6, align 8
  call void @freeifaddrs(ptr noundef %44) #12
  store i32 0, ptr %3, align 4
  store i32 1, ptr %11, align 4
  br label %204

45:                                               ; preds = %39
  %46 = load ptr, ptr %5, align 8
  %47 = load i32, ptr %46, align 4
  %48 = sext i32 %47 to i64
  %49 = call ptr @uv__calloc(i64 noundef %48, i64 noundef 80)
  %50 = load ptr, ptr %4, align 8
  store ptr %49, ptr %50, align 8
  %51 = load ptr, ptr %4, align 8
  %52 = load ptr, ptr %51, align 8
  %53 = icmp ne ptr %52, null
  br i1 %53, label %56, label %54

54:                                               ; preds = %45
  %55 = load ptr, ptr %6, align 8
  call void @freeifaddrs(ptr noundef %55) #12
  store i32 -12, ptr %3, align 4
  store i32 1, ptr %11, align 4
  br label %204

56:                                               ; preds = %45
  %57 = load ptr, ptr %4, align 8
  %58 = load ptr, ptr %57, align 8
  store ptr %58, ptr %8, align 8
  %59 = load ptr, ptr %6, align 8
  store ptr %59, ptr %7, align 8
  br label %60

60:                                               ; preds = %127, %56
  %61 = load ptr, ptr %7, align 8
  %62 = icmp ne ptr %61, null
  br i1 %62, label %63, label %131

63:                                               ; preds = %60
  %64 = load ptr, ptr %7, align 8
  %65 = call i32 @uv__ifaddr_exclude(ptr noundef %64, i32 noundef 1)
  %66 = icmp ne i32 %65, 0
  br i1 %66, label %67, label %68

67:                                               ; preds = %63
  br label %127

68:                                               ; preds = %63
  %69 = load ptr, ptr %7, align 8
  %70 = getelementptr inbounds nuw %struct.ifaddrs, ptr %69, i32 0, i32 1
  %71 = load ptr, ptr %70, align 8
  %72 = call ptr @uv__strdup(ptr noundef %71)
  %73 = load ptr, ptr %8, align 8
  %74 = getelementptr inbounds nuw %struct.uv_interface_address_s, ptr %73, i32 0, i32 0
  store ptr %72, ptr %74, align 8
  %75 = load ptr, ptr %7, align 8
  %76 = getelementptr inbounds nuw %struct.ifaddrs, ptr %75, i32 0, i32 3
  %77 = load ptr, ptr %76, align 8
  %78 = getelementptr inbounds nuw %struct.sockaddr, ptr %77, i32 0, i32 0
  %79 = load i16, ptr %78, align 2
  %80 = zext i16 %79 to i32
  %81 = icmp eq i32 %80, 10
  br i1 %81, label %82, label %88

82:                                               ; preds = %68
  %83 = load ptr, ptr %8, align 8
  %84 = getelementptr inbounds nuw %struct.uv_interface_address_s, ptr %83, i32 0, i32 3
  %85 = load ptr, ptr %7, align 8
  %86 = getelementptr inbounds nuw %struct.ifaddrs, ptr %85, i32 0, i32 3
  %87 = load ptr, ptr %86, align 8
  call void @llvm.memcpy.p0.p0.i64(ptr align 4 %84, ptr align 4 %87, i64 28, i1 false)
  br label %94

88:                                               ; preds = %68
  %89 = load ptr, ptr %8, align 8
  %90 = getelementptr inbounds nuw %struct.uv_interface_address_s, ptr %89, i32 0, i32 3
  %91 = load ptr, ptr %7, align 8
  %92 = getelementptr inbounds nuw %struct.ifaddrs, ptr %91, i32 0, i32 3
  %93 = load ptr, ptr %92, align 8
  call void @llvm.memcpy.p0.p0.i64(ptr align 4 %90, ptr align 4 %93, i64 16, i1 false)
  br label %94

94:                                               ; preds = %88, %82
  %95 = load ptr, ptr %7, align 8
  %96 = getelementptr inbounds nuw %struct.ifaddrs, ptr %95, i32 0, i32 4
  %97 = load ptr, ptr %96, align 8
  %98 = getelementptr inbounds nuw %struct.sockaddr, ptr %97, i32 0, i32 0
  %99 = load i16, ptr %98, align 2
  %100 = zext i16 %99 to i32
  %101 = icmp eq i32 %100, 10
  br i1 %101, label %102, label %108

102:                                              ; preds = %94
  %103 = load ptr, ptr %8, align 8
  %104 = getelementptr inbounds nuw %struct.uv_interface_address_s, ptr %103, i32 0, i32 4
  %105 = load ptr, ptr %7, align 8
  %106 = getelementptr inbounds nuw %struct.ifaddrs, ptr %105, i32 0, i32 4
  %107 = load ptr, ptr %106, align 8
  call void @llvm.memcpy.p0.p0.i64(ptr align 8 %104, ptr align 4 %107, i64 28, i1 false)
  br label %114

108:                                              ; preds = %94
  %109 = load ptr, ptr %8, align 8
  %110 = getelementptr inbounds nuw %struct.uv_interface_address_s, ptr %109, i32 0, i32 4
  %111 = load ptr, ptr %7, align 8
  %112 = getelementptr inbounds nuw %struct.ifaddrs, ptr %111, i32 0, i32 4
  %113 = load ptr, ptr %112, align 8
  call void @llvm.memcpy.p0.p0.i64(ptr align 8 %110, ptr align 4 %113, i64 16, i1 false)
  br label %114

114:                                              ; preds = %108, %102
  %115 = load ptr, ptr %7, align 8
  %116 = getelementptr inbounds nuw %struct.ifaddrs, ptr %115, i32 0, i32 2
  %117 = load i32, ptr %116, align 8
  %118 = and i32 %117, 8
  %119 = icmp ne i32 %118, 0
  %120 = xor i1 %119, true
  %121 = xor i1 %120, true
  %122 = zext i1 %121 to i32
  %123 = load ptr, ptr %8, align 8
  %124 = getelementptr inbounds nuw %struct.uv_interface_address_s, ptr %123, i32 0, i32 2
  store i32 %122, ptr %124, align 8
  %125 = load ptr, ptr %8, align 8
  %126 = getelementptr inbounds nuw %struct.uv_interface_address_s, ptr %125, i32 1
  store ptr %126, ptr %8, align 8
  br label %127

127:                                              ; preds = %114, %67
  %128 = load ptr, ptr %7, align 8
  %129 = getelementptr inbounds nuw %struct.ifaddrs, ptr %128, i32 0, i32 0
  %130 = load ptr, ptr %129, align 8
  store ptr %130, ptr %7, align 8
  br label %60

131:                                              ; preds = %60
  %132 = load ptr, ptr %6, align 8
  store ptr %132, ptr %7, align 8
  br label %133

133:                                              ; preds = %198, %131
  %134 = load ptr, ptr %7, align 8
  %135 = icmp ne ptr %134, null
  br i1 %135, label %136, label %202

136:                                              ; preds = %133
  %137 = load ptr, ptr %7, align 8
  %138 = call i32 @uv__ifaddr_exclude(ptr noundef %137, i32 noundef 0)
  %139 = icmp ne i32 %138, 0
  br i1 %139, label %140, label %141

140:                                              ; preds = %136
  br label %198

141:                                              ; preds = %136
  %142 = load ptr, ptr %4, align 8
  %143 = load ptr, ptr %142, align 8
  store ptr %143, ptr %8, align 8
  store i32 0, ptr %9, align 4
  br label %144

144:                                              ; preds = %194, %141
  %145 = load i32, ptr %9, align 4
  %146 = load ptr, ptr %5, align 8
  %147 = load i32, ptr %146, align 4
  %148 = icmp slt i32 %145, %147
  br i1 %148, label %149, label %197

149:                                              ; preds = %144
  call void @llvm.lifetime.start.p0(i64 8, ptr %12) #12
  %150 = load ptr, ptr %7, align 8
  %151 = getelementptr inbounds nuw %struct.ifaddrs, ptr %150, i32 0, i32 1
  %152 = load ptr, ptr %151, align 8
  %153 = call i64 @strlen(ptr noundef %152) #13
  store i64 %153, ptr %12, align 8
  %154 = load ptr, ptr %8, align 8
  %155 = getelementptr inbounds nuw %struct.uv_interface_address_s, ptr %154, i32 0, i32 0
  %156 = load ptr, ptr %155, align 8
  %157 = load ptr, ptr %7, align 8
  %158 = getelementptr inbounds nuw %struct.ifaddrs, ptr %157, i32 0, i32 1
  %159 = load ptr, ptr %158, align 8
  %160 = load i64, ptr %12, align 8
  %161 = call i32 @strncmp(ptr noundef %156, ptr noundef %159, i64 noundef %160) #13
  %162 = icmp eq i32 %161, 0
  br i1 %162, label %163, label %191

163:                                              ; preds = %149
  %164 = load ptr, ptr %8, align 8
  %165 = getelementptr inbounds nuw %struct.uv_interface_address_s, ptr %164, i32 0, i32 0
  %166 = load ptr, ptr %165, align 8
  %167 = load i64, ptr %12, align 8
  %168 = getelementptr inbounds nuw i8, ptr %166, i64 %167
  %169 = load i8, ptr %168, align 1
  %170 = sext i8 %169 to i32
  %171 = icmp eq i32 %170, 0
  br i1 %171, label %181, label %172

172:                                              ; preds = %163
  %173 = load ptr, ptr %8, align 8
  %174 = getelementptr inbounds nuw %struct.uv_interface_address_s, ptr %173, i32 0, i32 0
  %175 = load ptr, ptr %174, align 8
  %176 = load i64, ptr %12, align 8
  %177 = getelementptr inbounds nuw i8, ptr %175, i64 %176
  %178 = load i8, ptr %177, align 1
  %179 = sext i8 %178 to i32
  %180 = icmp eq i32 %179, 58
  br i1 %180, label %181, label %191

181:                                              ; preds = %172, %163
  %182 = load ptr, ptr %7, align 8
  %183 = getelementptr inbounds nuw %struct.ifaddrs, ptr %182, i32 0, i32 3
  %184 = load ptr, ptr %183, align 8
  store ptr %184, ptr %10, align 8
  %185 = load ptr, ptr %8, align 8
  %186 = getelementptr inbounds nuw %struct.uv_interface_address_s, ptr %185, i32 0, i32 1
  %187 = getelementptr inbounds [6 x i8], ptr %186, i64 0, i64 0
  %188 = load ptr, ptr %10, align 8
  %189 = getelementptr inbounds nuw %struct.sockaddr_ll, ptr %188, i32 0, i32 6
  %190 = getelementptr inbounds [8 x i8], ptr %189, i64 0, i64 0
  call void @llvm.memcpy.p0.p0.i64(ptr align 8 %187, ptr align 4 %190, i64 6, i1 false)
  br label %191

191:                                              ; preds = %181, %172, %149
  %192 = load ptr, ptr %8, align 8
  %193 = getelementptr inbounds nuw %struct.uv_interface_address_s, ptr %192, i32 1
  store ptr %193, ptr %8, align 8
  call void @llvm.lifetime.end.p0(i64 8, ptr %12) #12
  br label %194

194:                                              ; preds = %191
  %195 = load i32, ptr %9, align 4
  %196 = add nsw i32 %195, 1
  store i32 %196, ptr %9, align 4
  br label %144

197:                                              ; preds = %144
  br label %198

198:                                              ; preds = %197, %140
  %199 = load ptr, ptr %7, align 8
  %200 = getelementptr inbounds nuw %struct.ifaddrs, ptr %199, i32 0, i32 0
  %201 = load ptr, ptr %200, align 8
  store ptr %201, ptr %7, align 8
  br label %133

202:                                              ; preds = %133
  %203 = load ptr, ptr %6, align 8
  call void @freeifaddrs(ptr noundef %203) #12
  store i32 0, ptr %3, align 4
  store i32 1, ptr %11, align 4
  br label %204

204:                                              ; preds = %202, %54, %43, %17
  call void @llvm.lifetime.end.p0(i64 8, ptr %10) #12
  call void @llvm.lifetime.end.p0(i64 4, ptr %9) #12
  call void @llvm.lifetime.end.p0(i64 8, ptr %8) #12
  call void @llvm.lifetime.end.p0(i64 8, ptr %7) #12
  call void @llvm.lifetime.end.p0(i64 8, ptr %6) #12
  %205 = load i32, ptr %3, align 4
  ret i32 %205
}