; Function Attrs: nounwind uwtable
define dso_local range(i32 -2147483647, -2147483648) i32 @uv_interface_addresses(ptr noundef captures(none) initializes((0, 8)) %0, ptr noundef captures(none) initializes((0, 4)) %1) local_unnamed_addr #0 {
  %3 = alloca ptr, align 8
  call void @llvm.lifetime.start.p0(i64 8, ptr nonnull %3) #17
  store i32 0, ptr %1, align 4
  store ptr null, ptr %0, align 8
  %4 = call i32 @getifaddrs(ptr noundef nonnull %3) #17
  %.not = icmp eq i32 %4, 0
  br i1 %.not, label %.preheader81, label %5

.preheader81:                                     ; preds = %2
  %.04882 = load ptr, ptr %3, align 8
  %.not5683 = icmp eq ptr %.04882, null
  br i1 %.not5683, label %._crit_edge, label %.lr.ph

5:                                                ; preds = %2
  %6 = tail call ptr @__errno_location() #19
  %7 = load i32, ptr %6, align 4
  %8 = sub nsw i32 0, %7
  br label %92

.lr.ph:                                           ; preds = %.preheader81, %uv__ifaddr_exclude.exit.thread
  %.04884 = phi ptr [ %.048, %uv__ifaddr_exclude.exit.thread ], [ %.04882, %.preheader81 ]
  %9 = getelementptr inbounds nuw i8, ptr %.04884, i64 16
  %10 = load i32, ptr %9, align 8
  %11 = and i32 %10, 65
  %or.cond.not.i = icmp eq i32 %11, 65
  br i1 %or.cond.not.i, label %12, label %uv__ifaddr_exclude.exit.thread

12:                                               ; preds = %.lr.ph
  %13 = getelementptr inbounds nuw i8, ptr %.04884, i64 24
  %14 = load ptr, ptr %13, align 8
  %15 = icmp eq ptr %14, null
  br i1 %15, label %uv__ifaddr_exclude.exit.thread, label %uv__ifaddr_exclude.exit

uv__ifaddr_exclude.exit:                          ; preds = %12
  %16 = load i16, ptr %14, align 2
  %.not77 = icmp eq i16 %16, 17
  br i1 %.not77, label %uv__ifaddr_exclude.exit.thread, label %17

17:                                               ; preds = %uv__ifaddr_exclude.exit
  %18 = load i32, ptr %1, align 4
  %19 = add nsw i32 %18, 1
  store i32 %19, ptr %1, align 4
  br label %uv__ifaddr_exclude.exit.thread

uv__ifaddr_exclude.exit.thread:                   ; preds = %12, %.lr.ph, %uv__ifaddr_exclude.exit, %17
  %.048 = load ptr, ptr %.04884, align 8
  %.not56 = icmp eq ptr %.048, null
  br i1 %.not56, label %._crit_edge, label %.lr.ph

._crit_edge:                                      ; preds = %uv__ifaddr_exclude.exit.thread, %.preheader81
  %20 = load i32, ptr %1, align 4
  %21 = icmp eq i32 %20, 0
  br i1 %21, label %22, label %23

22:                                               ; preds = %._crit_edge
  call void @freeifaddrs(ptr noundef %.04882) #17
  br label %92

23:                                               ; preds = %._crit_edge
  %24 = sext i32 %20 to i64
  %25 = call ptr @uv__calloc(i64 noundef %24, i64 noundef 80) #17
  store ptr %25, ptr %0, align 8
  %.not57 = icmp eq ptr %25, null
  %26 = load ptr, ptr %3, align 8
  br i1 %.not57, label %27, label %.preheader80

.preheader80:                                     ; preds = %23
  %.not5886 = icmp eq ptr %26, null
  br i1 %.not5886, label %._crit_edge98, label %.lr.ph89

27:                                               ; preds = %23
  call void @freeifaddrs(ptr noundef %26) #17
  br label %92

.preheader:                                       ; preds = %uv__ifaddr_exclude.exit66.thread
  %.294.pre = load ptr, ptr %3, align 8
  %.not5995 = icmp eq ptr %.294.pre, null
  br i1 %.not5995, label %._crit_edge98, label %.lr.ph97

.lr.ph89:                                         ; preds = %.preheader80, %uv__ifaddr_exclude.exit66.thread
  %.188 = phi ptr [ %.1, %uv__ifaddr_exclude.exit66.thread ], [ %26, %.preheader80 ]
  %.05087 = phi ptr [ %.151, %uv__ifaddr_exclude.exit66.thread ], [ %25, %.preheader80 ]
  %28 = getelementptr inbounds nuw i8, ptr %.188, i64 16
  %29 = load i32, ptr %28, align 8
  %30 = and i32 %29, 65
  %or.cond.not.i63 = icmp eq i32 %30, 65
  br i1 %or.cond.not.i63, label %31, label %uv__ifaddr_exclude.exit66.thread

31:                                               ; preds = %.lr.ph89
  %32 = getelementptr inbounds nuw i8, ptr %.188, i64 24
  %33 = load ptr, ptr %32, align 8
  %34 = icmp eq ptr %33, null
  br i1 %34, label %uv__ifaddr_exclude.exit66.thread, label %uv__ifaddr_exclude.exit66

uv__ifaddr_exclude.exit66:                        ; preds = %31
  %35 = load i16, ptr %33, align 2
  %.not78 = icmp eq i16 %35, 17
  br i1 %.not78, label %uv__ifaddr_exclude.exit66.thread, label %36

36:                                               ; preds = %uv__ifaddr_exclude.exit66
  %37 = getelementptr inbounds nuw i8, ptr %.188, i64 8
  %38 = load ptr, ptr %37, align 8
  %39 = call ptr @uv__strdup(ptr noundef %38) #17
  store ptr %39, ptr %.05087, align 8
  %40 = load ptr, ptr %32, align 8
  %41 = load i16, ptr %40, align 2
  %42 = icmp eq i16 %41, 10
  %43 = getelementptr inbounds nuw i8, ptr %.05087, i64 20
  br i1 %42, label %44, label %45

44:                                               ; preds = %36
  call void @llvm.memcpy.p0.p0.i64(ptr noundef nonnull align 4 dereferenceable(28) %43, ptr noundef nonnull align 4 dereferenceable(28) %40, i64 28, i1 false)
  br label %46

45:                                               ; preds = %36
  call void @llvm.memcpy.p0.p0.i64(ptr noundef nonnull align 4 dereferenceable(16) %43, ptr noundef nonnull align 4 dereferenceable(16) %40, i64 16, i1 false)
  br label %46

46:                                               ; preds = %45, %44
  %47 = getelementptr inbounds nuw i8, ptr %.188, i64 32
  %48 = load ptr, ptr %47, align 8
  %49 = load i16, ptr %48, align 2
  %50 = icmp eq i16 %49, 10
  %51 = getelementptr inbounds nuw i8, ptr %.05087, i64 48
  br i1 %50, label %52, label %53

52:                                               ; preds = %46
  call void @llvm.memcpy.p0.p0.i64(ptr noundef nonnull align 8 dereferenceable(28) %51, ptr noundef nonnull align 4 dereferenceable(28) %48, i64 28, i1 false)
  br label %54

53:                                               ; preds = %46
  call void @llvm.memcpy.p0.p0.i64(ptr noundef nonnull align 8 dereferenceable(16) %51, ptr noundef nonnull align 4 dereferenceable(16) %48, i64 16, i1 false)
  br label %54

54:                                               ; preds = %53, %52
  %55 = load i32, ptr %28, align 8
  %56 = lshr i32 %55, 3
  %.lobit = and i32 %56, 1
  %57 = getelementptr inbounds nuw i8, ptr %.05087, i64 16
  store i32 %.lobit, ptr %57, align 8
  %58 = getelementptr inbounds nuw i8, ptr %.05087, i64 80
  br label %uv__ifaddr_exclude.exit66.thread

uv__ifaddr_exclude.exit66.thread:                 ; preds = %31, %.lr.ph89, %uv__ifaddr_exclude.exit66, %54
  %.151 = phi ptr [ %.05087, %uv__ifaddr_exclude.exit66 ], [ %58, %54 ], [ %.05087, %.lr.ph89 ], [ %.05087, %31 ]
  %.1 = load ptr, ptr %.188, align 8
  %.not58 = icmp eq ptr %.1, null
  br i1 %.not58, label %.preheader, label %.lr.ph89

.lr.ph97:                                         ; preds = %.preheader, %uv__ifaddr_exclude.exit70.thread
  %.296 = phi ptr [ %.2, %uv__ifaddr_exclude.exit70.thread ], [ %.294.pre, %.preheader ]
  %59 = getelementptr inbounds nuw i8, ptr %.296, i64 16
  %60 = load i32, ptr %59, align 8
  %61 = and i32 %60, 65
  %or.cond.not.i67 = icmp eq i32 %61, 65
  br i1 %or.cond.not.i67, label %62, label %uv__ifaddr_exclude.exit70.thread

62:                                               ; preds = %.lr.ph97
  %63 = getelementptr inbounds nuw i8, ptr %.296, i64 24
  %64 = load ptr, ptr %63, align 8
  %65 = icmp eq ptr %64, null
  br i1 %65, label %uv__ifaddr_exclude.exit70.thread, label %uv__ifaddr_exclude.exit70

uv__ifaddr_exclude.exit70:                        ; preds = %62
  %66 = load i16, ptr %64, align 2
  %.not79 = icmp eq i16 %66, 17
  br i1 %.not79, label %67, label %uv__ifaddr_exclude.exit70.thread

67:                                               ; preds = %uv__ifaddr_exclude.exit70
  %68 = load i32, ptr %1, align 4
  %69 = icmp sgt i32 %68, 0
  br i1 %69, label %.lr.ph93, label %uv__ifaddr_exclude.exit70.thread

.lr.ph93:                                         ; preds = %67
  %70 = load ptr, ptr %0, align 8
  %71 = getelementptr inbounds nuw i8, ptr %.296, i64 8
  br label %72

72:                                               ; preds = %.lr.ph93, %86
  %73 = phi i32 [ %68, %.lr.ph93 ], [ %87, %86 ]
  %.04991 = phi i32 [ 0, %.lr.ph93 ], [ %89, %86 ]
  %.25290 = phi ptr [ %70, %.lr.ph93 ], [ %88, %86 ]
  %74 = load ptr, ptr %71, align 8
  %75 = call i64 @strlen(ptr noundef nonnull dereferenceable(1) %74) #18
  %76 = load ptr, ptr %.25290, align 8
  %77 = call i32 @strncmp(ptr noundef %76, ptr noundef nonnull %74, i64 noundef %75) #18
  %78 = icmp eq i32 %77, 0
  br i1 %78, label %79, label %86

79:                                               ; preds = %72
  %80 = getelementptr inbounds nuw i8, ptr %76, i64 %75
  %81 = load i8, ptr %80, align 1
  switch i8 %81, label %86 [
    i8 0, label %82
    i8 58, label %82
  ]

82:                                               ; preds = %79, %79
  %83 = load ptr, ptr %63, align 8
  %84 = getelementptr inbounds nuw i8, ptr %.25290, i64 8
  %85 = getelementptr inbounds nuw i8, ptr %83, i64 12
  call void @llvm.memcpy.p0.p0.i64(ptr noundef nonnull align 8 dereferenceable(6) %84, ptr noundef nonnull align 4 dereferenceable(6) %85, i64 6, i1 false)
  %.pre = load i32, ptr %1, align 4
  br label %86

86:                                               ; preds = %79, %82, %72
  %87 = phi i32 [ %73, %79 ], [ %.pre, %82 ], [ %73, %72 ]
  %88 = getelementptr inbounds nuw i8, ptr %.25290, i64 80
  %89 = add nuw nsw i32 %.04991, 1
  %90 = icmp slt i32 %89, %87
  br i1 %90, label %72, label %uv__ifaddr_exclude.exit70.thread

uv__ifaddr_exclude.exit70.thread:                 ; preds = %86, %67, %62, %.lr.ph97, %uv__ifaddr_exclude.exit70
  %.2 = load ptr, ptr %.296, align 8
  %.not59 = icmp eq ptr %.2, null
  br i1 %.not59, label %._crit_edge98, label %.lr.ph97

._crit_edge98:                                    ; preds = %uv__ifaddr_exclude.exit70.thread, %.preheader80, %.preheader
  %91 = phi ptr [ null, %.preheader ], [ null, %.preheader80 ], [ %.294.pre, %uv__ifaddr_exclude.exit70.thread ]
  call void @freeifaddrs(ptr noundef %91) #17
  br label %92

92:                                               ; preds = %._crit_edge98, %27, %22, %5
  %.0 = phi i32 [ %8, %5 ], [ 0, %22 ], [ 0, %._crit_edge98 ], [ -12, %27 ]
  call void @llvm.lifetime.end.p0(i64 8, ptr nonnull %3) #17
  ret i32 %.0
}